target datalayout = "e-m:e-p270:32:32-p271:32:32-p272:64:64-i64:64-i128:128-f80:128-n8:16:32:64-S128"
target triple = "x86_64-pc-linux-gnu"

%struct.BIO_CORE_GLOBALS = type { ptr, ptr, ptr, ptr, ptr, ptr, ptr }
%struct.bio_st = type { ptr, ptr, ptr, ptr, ptr, i32, i32, i32, i32, i32, ptr, ptr, ptr, %struct.CRYPTO_REF_COUNT, i64, i64, %struct.crypto_ex_data_st }
%struct.CRYPTO_REF_COUNT = type { i32 }
%struct.crypto_ex_data_st = type { ptr, ptr }

; Function Attrs: inlinehint nounwind uwtable
define internal ptr @get_globals(ptr noundef %0) #3 {
  %2 = alloca ptr, align 8
  store ptr %0, ptr %2, align 8, !tbaa !7
  %3 = load ptr, ptr %2, align 8, !tbaa !7
  %4 = call ptr @ossl_lib_ctx_get_data(ptr noundef %3, i32 noundef 17)
  ret ptr %4
}

; Function Attrs: nounwind uwtable
define internal i32 @bio_core_write_ex(ptr noundef %0, ptr noundef %1, i64 noundef %2, ptr noundef %3) #0 {
  %5 = alloca i32, align 4
  %6 = alloca ptr, align 8
  %7 = alloca ptr, align 8
  %8 = alloca i64, align 8
  %9 = alloca ptr, align 8
  %10 = alloca ptr, align 8
  %11 = alloca i32, align 4
  store ptr %0, ptr %6, align 8, !tbaa !14
  store ptr %1, ptr %7, align 8, !tbaa !29
  store i64 %2, ptr %8, align 8, !tbaa !31
  store ptr %3, ptr %9, align 8, !tbaa !33
  call void @llvm.lifetime.start.p0(i64 8, ptr %10) #4
  %12 = load ptr, ptr %6, align 8, !tbaa !14
  %13 = getelementptr inbounds nuw %struct.bio_st, ptr %12, i32 0, i32 0
  %14 = load ptr, ptr %13, align 8, !tbaa !35
  %15 = call ptr @get_globals(ptr noundef %14)
  store ptr %15, ptr %10, align 8, !tbaa !3
  %16 = load ptr, ptr %10, align 8, !tbaa !3
  %17 = icmp eq ptr %16, null
  br i1 %17, label %23, label %18

18:                                               ; preds = %4
  %19 = load ptr, ptr %10, align 8, !tbaa !3
  %20 = getelementptr inbounds nuw %struct.BIO_CORE_GLOBALS, ptr %19, i32 0, i32 1
  %21 = load ptr, ptr %20, align 8, !tbaa !11
  %22 = icmp eq ptr %21, null
  br i1 %22, label %23, label %24

23:                                               ; preds = %18, %4
  store i32 0, ptr %5, align 4
  store i32 1, ptr %11, align 4
  br label %34

24:                                               ; preds = %18
  %25 = load ptr, ptr %10, align 8, !tbaa !3
  %26 = getelementptr inbounds nuw %struct.BIO_CORE_GLOBALS, ptr %25, i32 0, i32 1
  %27 = load ptr, ptr %26, align 8, !tbaa !11
  %28 = load ptr, ptr %6, align 8, !tbaa !14
  %29 = call ptr @BIO_get_data(ptr noundef %28)
  %30 = load ptr, ptr %7, align 8, !tbaa !29
  %31 = load i64, ptr %8, align 8, !tbaa !31
  %32 = load ptr, ptr %9, align 8, !tbaa !33
  %33 = call i32 %27(ptr noundef %29, ptr noundef %30, i64 noundef %31, ptr noundef %32)
  store i32 %33, ptr %5, align 4
  store i32 1, ptr %11, align 4
  br label %34

34:                                               ; preds = %24, %23
  call void @llvm.lifetime.end.p0(i64 8, ptr %10) #4
  %35 = load i32, ptr %5, align 4
  ret i32 %35
}