; Function Attrs: nounwind uwtable
define internal i32 @bio_core_write_ex(ptr noundef %0, ptr noundef %1, i64 noundef %2, ptr noundef %3) #0 {
  %5 = load ptr, ptr %0, align 8, !tbaa !20
  %6 = tail call ptr @ossl_lib_ctx_get_data(ptr noundef %5, i32 noundef 17) #3
  %7 = icmp eq ptr %6, null
  br i1 %7, label %15, label %8

8:                                                ; preds = %4
  %9 = getelementptr inbounds nuw i8, ptr %6, i64 8
  %10 = load ptr, ptr %9, align 8, !tbaa !3
  %11 = icmp eq ptr %10, null
  br i1 %11, label %15, label %12

12:                                               ; preds = %8
  %13 = tail call ptr @BIO_get_data(ptr noundef nonnull %0) #3
  %14 = tail call i32 %10(ptr noundef %13, ptr noundef %1, i64 noundef %2, ptr noundef %3) #3
  br label %15

15:                                               ; preds = %4, %8, %12
  %.0 = phi i32 [ %14, %12 ], [ 0, %8 ], [ 0, %4 ]
  ret i32 %.0
}